(imatplotlib.font_manager
FontManager
p1
(dp2
S'afm_lookup_cache'
p3
(dp4
sS'ttflist'
p5
(lp6
ccopy_reg
_reconstructor
p7
(cmatplotlib.font_manager
FontEntry
p8
c__builtin__
object
p9
NtRp10
(dp11
S'style'
p12
S'normal'
p13
sS'name'
p14
S'cmb10'
p15
sS'weight'
p16
I400
sS'stretch'
p17
g13
sS'variant'
p18
g13
sS'fname'
p19
S'/usr/share/matplotlib/mpl-data/fonts/ttf/cmb10.ttf'
p20
sS'size'
p21
S'scalable'
p22
sbag7
(g8
g9
NtRp23
(dp24
g12
g13
sg14
S'cmex10'
p25
sg16
I400
sg17
g13
sg18
g13
sg19
S'/usr/share/matplotlib/mpl-data/fonts/ttf/cmex10.ttf'
p26
sg21
g22
sbag7
(g8
g9
NtRp27
(dp28
g12
S'italic'
p29
sg14
S'STIXNonUnicode'
p30
sg16
I400
sg17
g13
sg18
g13
sg19
S'/usr/share/matplotlib/mpl-data/fonts/ttf/STIXNonUniIta.ttf'
p31
sg21
g22
sbag7
(g8
g9
NtRp32
(dp33
g12
g13
sg14
S'STIXNonUnicode'
p34
sg16
I400
sg17
g13
sg18
g13
sg19
S'/usr/share/matplotlib/mpl-data/fonts/ttf/STIXNonUni.ttf'
p35
sg21
g22
sbag7
(g8
g9
NtRp36
(dp37
g12
g13
sg14
S'STIXSize5'
p38
sg16
I400
sg17
g13
sg18
g13
sg19
S'/usr/share/matplotlib/mpl-data/fonts/ttf/STIXSiz5Sym.ttf'
p39
sg21
g22
sbag7
(g8
g9
NtRp40
(dp41
g12
g13
sg14
S'cmtt10'
p42
sg16
I400
sg17
g13
sg18
g13
sg19
S'/usr/share/matplotlib/mpl-data/fonts/ttf/cmtt10.ttf'
p43
sg21
g22
sbag7
(g8
g9
NtRp44
(dp45
g12
g13
sg14
S'STIXGeneral'
p46
sg16
I400
sg17
g13
sg18
g13
sg19
S'/usr/share/matplotlib/mpl-data/fonts/ttf/STIXGeneral.ttf'
p47
sg21
g22
sbag7
(g8
g9
NtRp48
(dp49
g12
g29
sg14
S'STIXNonUnicode'
p50
sg16
I700
sg17
g13
sg18
g13
sg19
S'/usr/share/matplotlib/mpl-data/fonts/ttf/STIXNonUniBolIta.ttf'
p51
sg21
g22
sbag7
(g8
g9
NtRp52
(dp53
g12
g13
sg14
S'STIXSize3'
p54
sg16
I700
sg17
g13
sg18
g13
sg19
S'/usr/share/matplotlib/mpl-data/fonts/ttf/STIXSiz3SymBol.ttf'
p55
sg21
g22
sbag7
(g8
g9
NtRp56
(dp57
g12
g13
sg14
S'STIXSize3'
p58
sg16
I400
sg17
g13
sg18
g13
sg19
S'/usr/share/matplotlib/mpl-data/fonts/ttf/STIXSiz3Sym.ttf'
p59
sg21
g22
sbag7
(g8
g9
NtRp60
(dp61
g12
g13
sg14
S'STIXSize2'
p62
sg16
I400
sg17
g13
sg18
g13
sg19
S'/usr/share/matplotlib/mpl-data/fonts/ttf/STIXSiz2Sym.ttf'
p63
sg21
g22
sbag7
(g8
g9
NtRp64
(dp65
g12
g13
sg14
S'STIXGeneral'
p66
sg16
I700
sg17
g13
sg18
g13
sg19
S'/usr/share/matplotlib/mpl-data/fonts/ttf/STIXGeneralBol.ttf'
p67
sg21
g22
sbag7
(g8
g9
NtRp68
(dp69
g12
g13
sg14
S'STIXSize4'
p70
sg16
I700
sg17
g13
sg18
g13
sg19
S'/usr/share/matplotlib/mpl-data/fonts/ttf/STIXSiz4SymBol.ttf'
p71
sg21
g22
sbag7
(g8
g9
NtRp72
(dp73
g12
g13
sg14
S'STIXSize2'
p74
sg16
I700
sg17
g13
sg18
g13
sg19
S'/usr/share/matplotlib/mpl-data/fonts/ttf/STIXSiz2SymBol.ttf'
p75
sg21
g22
sbag7
(g8
g9
NtRp76
(dp77
g12
g13
sg14
S'cmsy10'
p78
sg16
I400
sg17
g13
sg18
g13
sg19
S'/usr/share/matplotlib/mpl-data/fonts/ttf/cmsy10.ttf'
p79
sg21
g22
sbag7
(g8
g9
NtRp80
(dp81
g12
g13
sg14
S'cmss10'
p82
sg16
I400
sg17
g13
sg18
g13
sg19
S'/usr/share/matplotlib/mpl-data/fonts/ttf/cmss10.ttf'
p83
sg21
g22
sbag7
(g8
g9
NtRp84
(dp85
g12
g13
sg14
S'STIXSize1'
p86
sg16
I700
sg17
g13
sg18
g13
sg19
S'/usr/share/matplotlib/mpl-data/fonts/ttf/STIXSiz1SymBol.ttf'
p87
sg21
g22
sbag7
(g8
g9
NtRp88
(dp89
g12
g29
sg14
S'STIXGeneral'
p90
sg16
I400
sg17
g13
sg18
g13
sg19
S'/usr/share/matplotlib/mpl-data/fonts/ttf/STIXGeneralItalic.ttf'
p91
sg21
g22
sbag7
(g8
g9
NtRp92
(dp93
g12
g13
sg14
S'cmr10'
p94
sg16
I400
sg17
g13
sg18
g13
sg19
S'/usr/share/matplotlib/mpl-data/fonts/ttf/cmr10.ttf'
p95
sg21
g22
sbag7
(g8
g9
NtRp96
(dp97
g12
g13
sg14
S'STIXSize4'
p98
sg16
I400
sg17
g13
sg18
g13
sg19
S'/usr/share/matplotlib/mpl-data/fonts/ttf/STIXSiz4Sym.ttf'
p99
sg21
g22
sbag7
(g8
g9
NtRp100
(dp101
g12
g13
sg14
S'STIXSize1'
p102
sg16
I400
sg17
g13
sg18
g13
sg19
S'/usr/share/matplotlib/mpl-data/fonts/ttf/STIXSiz1Sym.ttf'
p103
sg21
g22
sbag7
(g8
g9
NtRp104
(dp105
g12
g13
sg14
S'cmmi10'
p106
sg16
I400
sg17
g13
sg18
g13
sg19
S'/usr/share/matplotlib/mpl-data/fonts/ttf/cmmi10.ttf'
p107
sg21
g22
sbag7
(g8
g9
NtRp108
(dp109
g12
g13
sg14
S'STIXNonUnicode'
p110
sg16
I700
sg17
g13
sg18
g13
sg19
S'/usr/share/matplotlib/mpl-data/fonts/ttf/STIXNonUniBol.ttf'
p111
sg21
g22
sbag7
(g8
g9
NtRp112
(dp113
g12
g29
sg14
S'STIXGeneral'
p114
sg16
I700
sg17
g13
sg18
g13
sg19
S'/usr/share/matplotlib/mpl-data/fonts/ttf/STIXGeneralBolIta.ttf'
p115
sg21
g22
sbag7
(g8
g9
NtRp116
(dp117
g12
S'oblique'
p118
sg14
S'Purisa'
p119
sg16
I700
sg17
g13
sg18
g13
sg19
S'/usr/share/fonts/truetype/thai/Purisa-BoldOblique.ttf'
p120
sg21
g22
sbag7
(g8
g9
NtRp121
(dp122
g12
g13
sg14
S'mry_KacstQurn'
p123
sg16
I400
sg17
g13
sg18
g13
sg19
S'/usr/share/fonts/truetype/ttf-kacst/mry_KacstQurn.ttf'
p124
sg21
g22
sbag7
(g8
g9
NtRp125
(dp126
g12
g13
sg14
S'Mallige'
p127
sg16
I700
sg17
g13
sg18
g13
sg19
S'/usr/share/fonts/truetype/ttf-indic-fonts-core/Malige-b.ttf'
p128
sg21
g22
sbag7
(g8
g9
NtRp129
(dp130
g12
g118
sg14
S'Kinnari'
p131
sg16
I700
sg17
g13
sg18
g13
sg19
S'/usr/share/fonts/truetype/thai/Kinnari-BoldOblique.ttf'
p132
sg21
g22
sbag7
(g8
g9
NtRp133
(dp134
g12
g118
sg14
S'Tlwg Typo'
p135
sg16
I400
sg17
g13
sg18
g13
sg19
S'/usr/share/fonts/truetype/thai/TlwgTypo-Oblique.ttf'
p136
sg21
g22
sbag7
(g8
g9
NtRp137
(dp138
g12
g13
sg14
S'Umpush'
p139
sg16
I400
sg17
g13
sg18
g13
sg19
S'/usr/share/fonts/truetype/thai/Umpush.ttf'
p140
sg21
g22
sbag7
(g8
g9
NtRp141
(dp142
g12
g118
sg14
S'Loma'
p143
sg16
I700
sg17
g13
sg18
g13
sg19
S'/usr/share/fonts/truetype/thai/Loma-BoldOblique.ttf'
p144
sg21
g22
sbag7
(g8
g9
NtRp145
(dp146
g12
g13
sg14
S'UnBatang'
p147
sg16
I700
sg17
g13
sg18
g13
sg19
S'/usr/share/fonts/truetype/unfonts/UnBatangBold.ttf'
p148
sg21
g22
sbag7
(g8
g9
NtRp149
(dp150
g12
g13
sg14
S'msam10'
p151
sg16
I400
sg17
g13
sg18
g13
sg19
S'/usr/share/fonts/truetype/latex-xft-fonts/msam10.ttf'
p152
sg21
g22
sbag7
(g8
g9
NtRp153
(dp154
g12
g118
sg14
S'TlwgTypewriter'
p155
sg16
I400
sg17
g13
sg18
g13
sg19
S'/usr/share/fonts/truetype/thai/TlwgTypewriter-Oblique.ttf'
p156
sg21
g22
sbag7
(g8
g9
NtRp157
(dp158
g12
g13
sg14
S'DejaVu Sans Mono'
p159
sg16
I400
sg17
g13
sg18
g13
sg19
S'/usr/share/fonts/truetype/ttf-dejavu/DejaVuSansMono.ttf'
p160
sg21
g22
sbag7
(g8
g9
NtRp161
(dp162
g12
g13
sg14
S'Kinnari'
p163
sg16
I400
sg17
g13
sg18
g13
sg19
S'/usr/share/fonts/truetype/thai/Kinnari.ttf'
p164
sg21
g22
sbag7
(g8
g9
NtRp165
(dp166
g12
g118
sg14
S'Loma'
p167
sg16
I400
sg17
g13
sg18
g13
sg19
S'/usr/share/fonts/truetype/thai/Loma-Oblique.ttf'
p168
sg21
g22
sbag7
(g8
g9
NtRp169
(dp170
g12
g13
sg14
S'FreeSerif'
p171
sg16
I700
sg17
g13
sg18
g13
sg19
S'/usr/share/fonts/truetype/freefont/FreeSerifBold.ttf'
p172
sg21
g22
sbag7
(g8
g9
NtRp173
(dp174
g12
g118
sg14
S'Umpush'
p175
sg16
I700
sg17
g13
sg18
g13
sg19
S'/usr/share/fonts/truetype/thai/Umpush-BoldOblique.ttf'
p176
sg21
g22
sbag7
(g8
g9
NtRp177
(dp178
g12
g13
sg14
S'wasy10'
p179
sg16
I400
sg17
g13
sg18
g13
sg19
S'/usr/share/fonts/truetype/latex-xft-fonts/wasy10.ttf'
p180
sg21
g22
sbag7
(g8
g9
NtRp181
(dp182
g12
g13
sg14
S'Rachana'
p183
sg16
I400
sg17
g13
sg18
g13
sg19
S'/usr/share/fonts/truetype/ttf-indic-fonts-core/Rachana_04.ttf'
p184
sg21
g22
sbag7
(g8
g9
NtRp185
(dp186
g12
g13
sg14
S'DejaVu Serif'
p187
sg16
I400
sg17
g13
sg18
g13
sg19
S'/usr/share/fonts/truetype/ttf-dejavu/DejaVuSerif.ttf'
p188
sg21
g22
sbag7
(g8
g9
NtRp189
(dp190
g12
g13
sg14
S'KacstOffice'
p191
sg16
I400
sg17
g13
sg18
g13
sg19
S'/usr/share/fonts/truetype/ttf-kacst/KacstOffice.ttf'
p192
sg21
g22
sbag7
(g8
g9
NtRp193
(dp194
g12
g118
sg14
S'FreeSans'
p195
sg16
I400
sg17
g13
sg18
g13
sg19
S'/usr/share/fonts/truetype/freefont/FreeSansOblique.ttf'
p196
sg21
g22
sbag7
(g8
g9
NtRp197
(dp198
g12
g13
sg14
S'TlwgMono'
p199
sg16
I700
sg17
g13
sg18
g13
sg19
S'/usr/share/fonts/truetype/thai/TlwgMono-Bold.ttf'
p200
sg21
g22
sbag7
(g8
g9
NtRp201
(dp202
g12
g13
sg14
S'Lohit Hindi'
p203
sg16
I400
sg17
g13
sg18
g13
sg19
S'/usr/share/fonts/truetype/ttf-indic-fonts-core/lohit_hi.ttf'
p204
sg21
g22
sbag7
(g8
g9
NtRp205
(dp206
g12
g13
sg14
S'msbm10'
p207
sg16
I400
sg17
g13
sg18
g13
sg19
S'/usr/share/fonts/truetype/latex-xft-fonts/msbm10.ttf'
p208
sg21
g22
sbag7
(g8
g9
NtRp209
(dp210
g12
g13
sg14
S'UnDotum'
p211
sg16
I700
sg17
g13
sg18
g13
sg19
S'/usr/share/fonts/truetype/unfonts/UnDotumBold.ttf'
p212
sg21
g22
sbag7
(g8
g9
NtRp213
(dp214
g12
g13
sg14
S'Norasi'
p215
sg16
I400
sg17
g13
sg18
g13
sg19
S'/usr/share/fonts/truetype/thai/Norasi.ttf'
p216
sg21
g22
sbag7
(g8
g9
NtRp217
(dp218
g12
g13
sg14
S'KacstQurn'
p219
sg16
I400
sg17
g13
sg18
g13
sg19
S'/usr/share/fonts/truetype/ttf-kacst/KacstQurn.ttf'
p220
sg21
g22
sbag7
(g8
g9
NtRp221
(dp222
g12
g118
sg14
S'Norasi'
p223
sg16
I400
sg17
g13
sg18
g13
sg19
S'/usr/share/fonts/truetype/thai/Norasi-Oblique.ttf'
p224
sg21
g22
sbag7
(g8
g9
NtRp225
(dp226
g12
g13
sg14
S'Sawasdee'
p227
sg16
I700
sg17
g13
sg18
g13
sg19
S'/usr/share/fonts/truetype/thai/Sawasdee-Bold.ttf'
p228
sg21
g22
sbag7
(g8
g9
NtRp229
(dp230
g12
g13
sg14
S'Waree'
p231
sg16
I400
sg17
g13
sg18
g13
sg19
S'/usr/share/fonts/truetype/thai/Waree.ttf'
p232
sg21
g22
sbag7
(g8
g9
NtRp233
(dp234
g12
g13
sg14
S'KacstOne'
p235
sg16
I400
sg17
g13
sg18
g13
sg19
S'/usr/share/fonts/truetype/ttf-kacst/KacstOne.ttf'
p236
sg21
g22
sbag7
(g8
g9
NtRp237
(dp238
g12
g13
sg14
S'DejaVu Sans Mono'
p239
sg16
I700
sg17
g13
sg18
g13
sg19
S'/usr/share/fonts/truetype/ttf-dejavu/DejaVuSansMono-Bold.ttf'
p240
sg21
g22
sbag7
(g8
g9
NtRp241
(dp242
g12
g13
sg14
S'KacstBook'
p243
sg16
I400
sg17
g13
sg18
g13
sg19
S'/usr/share/fonts/truetype/ttf-kacst/KacstBook.ttf'
p244
sg21
g22
sbag7
(g8
g9
NtRp245
(dp246
g12
g118
sg14
S'Sawasdee'
p247
sg16
I700
sg17
g13
sg18
g13
sg19
S'/usr/share/fonts/truetype/thai/Sawasdee-BoldOblique.ttf'
p248
sg21
g22
sbag7
(g8
g9
NtRp249
(dp250
g12
g118
sg14
S'Waree'
p251
sg16
I700
sg17
g13
sg18
g13
sg19
S'/usr/share/fonts/truetype/thai/Waree-BoldOblique.ttf'
p252
sg21
g22
sbag7
(g8
g9
NtRp253
(dp254
g12
g13
sg14
S'TlwgTypewriter'
p255
sg16
I400
sg17
g13
sg18
g13
sg19
S'/usr/share/fonts/truetype/thai/TlwgTypewriter.ttf'
p256
sg21
g22
sbag7
(g8
g9
NtRp257
(dp258
g12
g13
sg14
S'ori1Uni'
p259
sg16
I500
sg17
g13
sg18
g13
sg19
S'/usr/share/fonts/truetype/ttf-indic-fonts-core/utkal.ttf'
p260
sg21
g22
sbag7
(g8
g9
NtRp261
(dp262
g12
g118
sg14
S'Garuda'
p263
sg16
I700
sg17
g13
sg18
g13
sg19
S'/usr/share/fonts/truetype/thai/Garuda-BoldOblique.ttf'
p264
sg21
g22
sbag7
(g8
g9
NtRp265
(dp266
g12
g118
sg14
S'TlwgMono'
p267
sg16
I700
sg17
g13
sg18
g13
sg19
S'/usr/share/fonts/truetype/thai/TlwgMono-BoldOblique.ttf'
p268
sg21
g22
sbag7
(g8
g9
NtRp269
(dp270
g12
g118
sg14
S'Tlwg Typist'
p271
sg16
I400
sg17
g13
sg18
g13
sg19
S'/usr/share/fonts/truetype/thai/TlwgTypist-Oblique.ttf'
p272
sg21
g22
sbag7
(g8
g9
NtRp273
(dp274
g12
g13
sg14
S'DejaVu Serif'
p275
sg16
I700
sg17
g13
sg18
g13
sg19
S'/usr/share/fonts/truetype/ttf-dejavu/DejaVuSerif-Bold.ttf'
p276
sg21
g22
sbag7
(g8
g9
NtRp277
(dp278
g12
g13
sg14
S'Tlwg Typist'
p279
sg16
I700
sg17
g13
sg18
g13
sg19
S'/usr/share/fonts/truetype/thai/TlwgTypist-Bold.ttf'
p280
sg21
g22
sbag7
(g8
g9
NtRp281
(dp282
g12
g13
sg14
S'KacstDigital'
p283
sg16
I400
sg17
g13
sg18
g13
sg19
S'/usr/share/fonts/truetype/ttf-kacst/KacstDigital.ttf'
p284
sg21
g22
sbag7
(g8
g9
NtRp285
(dp286
g12
g13
sg14
S'VL PGothic'
p287
sg16
I400
sg17
g13
sg18
g13
sg19
S'/usr/share/fonts/truetype/vlgothic/VL-PGothic-Regular.ttf'
p288
sg21
g22
sbag7
(g8
g9
NtRp289
(dp290
g12
g13
sg14
S'VL Gothic'
p291
sg16
I400
sg17
g13
sg18
g13
sg19
S'/usr/share/fonts/truetype/vlgothic/VL-Gothic-Regular.ttf'
p292
sg21
g22
sbag7
(g8
g9
NtRp293
(dp294
g12
g13
sg14
S'KacstPoster'
p295
sg16
I400
sg17
g13
sg18
g13
sg19
S'/usr/share/fonts/truetype/ttf-kacst/KacstPoster.ttf'
p296
sg21
g22
sbag7
(g8
g9
NtRp297
(dp298
g12
g13
sg14
S'Mallige'
p299
sg16
I400
sg17
g13
sg18
g13
sg19
S'/usr/share/fonts/truetype/ttf-indic-fonts-core/Malige-n.ttf'
p300
sg21
g22
sbag7
(g8
g9
NtRp301
(dp302
g12
g13
sg14
S'KacstDecorative'
p303
sg16
I400
sg17
g13
sg18
g13
sg19
S'/usr/share/fonts/truetype/ttf-kacst/KacstDecorative.ttf'
p304
sg21
g22
sbag7
(g8
g9
NtRp305
(dp306
g12
g13
sg14
S'DejaVu Sans'
p307
sg16
I400
sg17
g13
sg18
g13
sg19
S'/usr/share/fonts/truetype/ttf-dejavu/DejaVuSans.ttf'
p308
sg21
g22
sbag7
(g8
g9
NtRp309
(dp310
g12
g13
sg14
S'FreeSans'
p311
sg16
I700
sg17
g13
sg18
g13
sg19
S'/usr/share/fonts/truetype/freefont/FreeSansBold.ttf'
p312
sg21
g22
sbag7
(g8
g9
NtRp313
(dp314
g12
g13
sg14
S'Loma'
p315
sg16
I700
sg17
g13
sg18
g13
sg19
S'/usr/share/fonts/truetype/thai/Loma-Bold.ttf'
p316
sg21
g22
sbag7
(g8
g9
NtRp317
(dp318
g12
g13
sg14
S'Tlwg Typo'
p319
sg16
I400
sg17
g13
sg18
g13
sg19
S'/usr/share/fonts/truetype/thai/TlwgTypo.ttf'
p320
sg21
g22
sbag7
(g8
g9
NtRp321
(dp322
g12
g13
sg14
S'Sawasdee'
p323
sg16
I400
sg17
g13
sg18
g13
sg19
S'/usr/share/fonts/truetype/thai/Sawasdee.ttf'
p324
sg21
g22
sbag7
(g8
g9
NtRp325
(dp326
g12
g13
sg14
S'KacstTitle'
p327
sg16
I400
sg17
g13
sg18
g13
sg19
S'/usr/share/fonts/truetype/ttf-kacst/KacstTitle.ttf'
p328
sg21
g22
sbag7
(g8
g9
NtRp329
(dp330
g12
g13
sg14
S'FreeMono'
p331
sg16
I700
sg17
g13
sg18
g13
sg19
S'/usr/share/fonts/truetype/freefont/FreeMonoBold.ttf'
p332
sg21
g22
sbag7
(g8
g9
NtRp333
(dp334
g12
g13
sg14
S'DejaVu Sans'
p335
sg16
I700
sg17
g13
sg18
g13
sg19
S'/usr/share/fonts/truetype/ttf-dejavu/DejaVuSans-Bold.ttf'
p336
sg21
g22
sbag7
(g8
g9
NtRp337
(dp338
g12
g13
sg14
S'Garuda'
p339
sg16
I400
sg17
g13
sg18
g13
sg19
S'/usr/share/fonts/truetype/thai/Garuda.ttf'
p340
sg21
g22
sbag7
(g8
g9
NtRp341
(dp342
g12
g13
sg14
S'Phetsarath OT'
p343
sg16
I400
sg17
g13
sg18
g13
sg19
S'/usr/share/fonts/truetype/ttf-lao/Phetsarath_OT.ttf'
p344
sg21
g22
sbag7
(g8
g9
NtRp345
(dp346
g12
g118
sg14
S'TlwgTypewriter'
p347
sg16
I700
sg17
g13
sg18
g13
sg19
S'/usr/share/fonts/truetype/thai/TlwgTypewriter-BoldOblique.ttf'
p348
sg21
g22
sbag7
(g8
g9
NtRp349
(dp350
g12
g13
sg14
S'Garuda'
p351
sg16
I700
sg17
g13
sg18
g13
sg19
S'/usr/share/fonts/truetype/thai/Garuda-Bold.ttf'
p352
sg21
g22
sbag7
(g8
g9
NtRp353
(dp354
g12
g13
sg14
S'Loma'
p355
sg16
I400
sg17
g13
sg18
g13
sg19
S'/usr/share/fonts/truetype/thai/Loma.ttf'
p356
sg21
g22
sbag7
(g8
g9
NtRp357
(dp358
g12
g118
sg14
S'Umpush'
p359
sg16
I200
sg17
g13
sg18
g13
sg19
S'/usr/share/fonts/truetype/thai/Umpush-LightOblique.ttf'
p360
sg21
g22
sbag7
(g8
g9
NtRp361
(dp362
g12
g13
sg14
S'KacstLetter'
p363
sg16
I400
sg17
g13
sg18
g13
sg19
S'/usr/share/fonts/truetype/ttf-kacst/KacstLetter.ttf'
p364
sg21
g22
sbag7
(g8
g9
NtRp365
(dp366
g12
g13
sg14
S'Kinnari'
p367
sg16
I700
sg17
g13
sg18
g13
sg19
S'/usr/share/fonts/truetype/thai/Kinnari-Bold.ttf'
p368
sg21
g22
sbag7
(g8
g9
NtRp369
(dp370
g12
g13
sg14
S'TlwgMono'
p371
sg16
I400
sg17
g13
sg18
g13
sg19
S'/usr/share/fonts/truetype/thai/TlwgMono.ttf'
p372
sg21
g22
sbag7
(g8
g9
NtRp373
(dp374
g12
g13
sg14
S'OpenSymbol'
p375
sg16
I400
sg17
g13
sg18
g13
sg19
S'/usr/share/fonts/truetype/openoffice/opens___.ttf'
p376
sg21
g22
sbag7
(g8
g9
NtRp377
(dp378
g12
g13
sg14
S'UnBatang'
p379
sg16
I400
sg17
g13
sg18
g13
sg19
S'/usr/share/fonts/truetype/unfonts/UnBatang.ttf'
p380
sg21
g22
sbag7
(g8
g9
NtRp381
(dp382
g12
g13
sg14
S'KacstTitleL'
p383
sg16
I400
sg17
g13
sg18
g13
sg19
S'/usr/share/fonts/truetype/ttf-kacst/KacstTitleL.ttf'
p384
sg21
g22
sbag7
(g8
g9
NtRp385
(dp386
g12
g29
sg14
S'Kinnari'
p387
sg16
I400
sg17
g13
sg18
g13
sg19
S'/usr/share/fonts/truetype/thai/Kinnari-Italic.ttf'
p388
sg21
g22
sbag7
(g8
g9
NtRp389
(dp390
g12
g13
sg14
S'Mukti Narrow'
p391
sg16
I700
sg17
g13
sg18
g13
sg19
S'/usr/share/fonts/truetype/ttf-indic-fonts-core/MuktiNarrowBold.ttf'
p392
sg21
g22
sbag7
(g8
g9
NtRp393
(dp394
g12
g13
sg14
S'UnDotum'
p395
sg16
I400
sg17
g13
sg18
g13
sg19
S'/usr/share/fonts/truetype/unfonts/UnDotum.ttf'
p396
sg21
g22
sbag7
(g8
g9
NtRp397
(dp398
g12
g29
sg14
S'Kinnari'
p399
sg16
I700
sg17
g13
sg18
g13
sg19
S'/usr/share/fonts/truetype/thai/Kinnari-BoldItalic.ttf'
p400
sg21
g22
sbag7
(g8
g9
NtRp401
(dp402
g12
g118
sg14
S'FreeSans'
p403
sg16
I700
sg17
g13
sg18
g13
sg19
S'/usr/share/fonts/truetype/freefont/FreeSansBoldOblique.ttf'
p404
sg21
g22
sbag7
(g8
g9
NtRp405
(dp406
g12
g13
sg14
S'Purisa'
p407
sg16
I400
sg17
g13
sg18
g13
sg19
S'/usr/share/fonts/truetype/thai/Purisa.ttf'
p408
sg21
g22
sbag7
(g8
g9
NtRp409
(dp410
g12
g118
sg14
S'TlwgMono'
p411
sg16
I400
sg17
g13
sg18
g13
sg19
S'/usr/share/fonts/truetype/thai/TlwgMono-Oblique.ttf'
p412
sg21
g22
sbag7
(g8
g9
NtRp413
(dp414
g12
g118
sg14
S'FreeMono'
p415
sg16
I700
sg17
g13
sg18
g13
sg19
S'/usr/share/fonts/truetype/freefont/FreeMonoBoldOblique.ttf'
p416
sg21
g22
sbag7
(g8
g9
NtRp417
(dp418
g12
g13
sg14
S'Tlwg Typist'
p419
sg16
I400
sg17
g13
sg18
g13
sg19
S'/usr/share/fonts/truetype/thai/TlwgTypist.ttf'
p420
sg21
g22
sbag7
(g8
g9
NtRp421
(dp422
g12
g13
sg14
S'FreeSans'
p423
sg16
I400
sg17
g13
sg18
g13
sg19
S'/usr/share/fonts/truetype/freefont/FreeSans.ttf'
p424
sg21
g22
sbag7
(g8
g9
NtRp425
(dp426
g12
g118
sg14
S'Kinnari'
p427
sg16
I400
sg17
g13
sg18
g13
sg19
S'/usr/share/fonts/truetype/thai/Kinnari-Oblique.ttf'
p428
sg21
g22
sbag7
(g8
g9
NtRp429
(dp430
g12
g29
sg14
S'FreeSerif'
p431
sg16
I700
sg17
g13
sg18
g13
sg19
S'/usr/share/fonts/truetype/freefont/FreeSerifBoldItalic.ttf'
p432
sg21
g22
sbag7
(g8
g9
NtRp433
(dp434
g12
g13
sg14
S'Vemana2000'
p435
sg16
I400
sg17
g13
sg18
g13
sg19
S'/usr/share/fonts/truetype/ttf-indic-fonts-core/Vemana.ttf'
p436
sg21
g22
sbag7
(g8
g9
NtRp437
(dp438
g12
g13
sg14
S'Waree'
p439
sg16
I700
sg17
g13
sg18
g13
sg19
S'/usr/share/fonts/truetype/thai/Waree-Bold.ttf'
p440
sg21
g22
sbag7
(g8
g9
NtRp441
(dp442
g12
g13
sg14
S'KacstNaskh'
p443
sg16
I400
sg17
g13
sg18
g13
sg19
S'/usr/share/fonts/truetype/ttf-kacst/KacstNaskh.ttf'
p444
sg21
g22
sbag7
(g8
g9
NtRp445
(dp446
g12
g13
sg14
S'Lohit Tamil'
p447
sg16
I400
sg17
g13
sg18
g13
sg19
S'/usr/share/fonts/truetype/ttf-indic-fonts-core/lohit_ta.ttf'
p448
sg21
g22
sbag7
(g8
g9
NtRp449
(dp450
g12
g13
sg14
S'Umpush'
p451
sg16
I700
sg17
g13
sg18
g13
sg19
S'/usr/share/fonts/truetype/thai/Umpush-Bold.ttf'
p452
sg21
g22
sbag7
(g8
g9
NtRp453
(dp454
g12
g13
sg14
S'Lohit Punjabi'
p455
sg16
I400
sg17
g13
sg18
g13
sg19
S'/usr/share/fonts/truetype/ttf-indic-fonts-core/lohit_pa.ttf'
p456
sg21
g22
sbag7
(g8
g9
NtRp457
(dp458
g12
g118
sg14
S'FreeMono'
p459
sg16
I400
sg17
g13
sg18
g13
sg19
S'/usr/share/fonts/truetype/freefont/FreeMonoOblique.ttf'
p460
sg21
g22
sbag7
(g8
g9
NtRp461
(dp462
g12
g13
sg14
S'TlwgTypewriter'
p463
sg16
I700
sg17
g13
sg18
g13
sg19
S'/usr/share/fonts/truetype/thai/TlwgTypewriter-Bold.ttf'
p464
sg21
g22
sbag7
(g8
g9
NtRp465
(dp466
g12
g13
sg14
S'KacstFarsi'
p467
sg16
I400
sg17
g13
sg18
g13
sg19
S'/usr/share/fonts/truetype/ttf-kacst/KacstFarsi.ttf'
p468
sg21
g22
sbag7
(g8
g9
NtRp469
(dp470
g12
g13
sg14
S'Umpush'
p471
sg16
I200
sg17
g13
sg18
g13
sg19
S'/usr/share/fonts/truetype/thai/Umpush-Light.ttf'
p472
sg21
g22
sbag7
(g8
g9
NtRp473
(dp474
g12
g118
sg14
S'Garuda'
p475
sg16
I400
sg17
g13
sg18
g13
sg19
S'/usr/share/fonts/truetype/thai/Garuda-Oblique.ttf'
p476
sg21
g22
sbag7
(g8
g9
NtRp477
(dp478
g12
g118
sg14
S'Tlwg Typo'
p479
sg16
I700
sg17
g13
sg18
g13
sg19
S'/usr/share/fonts/truetype/thai/TlwgTypo-BoldOblique.ttf'
p480
sg21
g22
sbag7
(g8
g9
NtRp481
(dp482
g12
g13
sg14
S'FreeSerif'
p483
sg16
I400
sg17
g13
sg18
g13
sg19
S'/usr/share/fonts/truetype/freefont/FreeSerif.ttf'
p484
sg21
g22
sbag7
(g8
g9
NtRp485
(dp486
g12
g13
sg14
S'VL Gothic'
p487
sg16
I400
sg17
g13
sg18
g13
sg19
S'/usr/share/fonts/truetype/ttf-japanese-gothic.ttf'
p488
sg21
g22
sbag7
(g8
g9
NtRp489
(dp490
g12
g13
sg14
S'Purisa'
p491
sg16
I700
sg17
g13
sg18
g13
sg19
S'/usr/share/fonts/truetype/thai/Purisa-Bold.ttf'
p492
sg21
g22
sbag7
(g8
g9
NtRp493
(dp494
g12
g118
sg14
S'Umpush'
p495
sg16
I400
sg17
g13
sg18
g13
sg19
S'/usr/share/fonts/truetype/thai/Umpush-Oblique.ttf'
p496
sg21
g22
sbag7
(g8
g9
NtRp497
(dp498
g12
g118
sg14
S'Sawasdee'
p499
sg16
I400
sg17
g13
sg18
g13
sg19
S'/usr/share/fonts/truetype/thai/Sawasdee-Oblique.ttf'
p500
sg21
g22
sbag7
(g8
g9
NtRp501
(dp502
g12
g13
sg14
S'Mukti Narrow'
p503
sg16
I400
sg17
g13
sg18
g13
sg19
S'/usr/share/fonts/truetype/ttf-indic-fonts-core/MuktiNarrow.ttf'
p504
sg21
g22
sbag7
(g8
g9
NtRp505
(dp506
g12
g13
sg14
S'Norasi'
p507
sg16
I700
sg17
g13
sg18
g13
sg19
S'/usr/share/fonts/truetype/thai/Norasi-Bold.ttf'
p508
sg21
g22
sbag7
(g8
g9
NtRp509
(dp510
g12
g118
sg14
S'Purisa'
p511
sg16
I400
sg17
g13
sg18
g13
sg19
S'/usr/share/fonts/truetype/thai/Purisa-Oblique.ttf'
p512
sg21
g22
sbag7
(g8
g9
NtRp513
(dp514
g12
g13
sg14
S'Lohit Gujarati'
p515
sg16
I400
sg17
g13
sg18
g13
sg19
S'/usr/share/fonts/truetype/ttf-indic-fonts-core/lohit_gu.ttf'
p516
sg21
g22
sbag7
(g8
g9
NtRp517
(dp518
g12
g118
sg14
S'Tlwg Typist'
p519
sg16
I700
sg17
g13
sg18
g13
sg19
S'/usr/share/fonts/truetype/thai/TlwgTypist-BoldOblique.ttf'
p520
sg21
g22
sbag7
(g8
g9
NtRp521
(dp522
g12
g13
sg14
S'KacstScreen'
p523
sg16
I400
sg17
g13
sg18
g13
sg19
S'/usr/share/fonts/truetype/ttf-kacst/KacstScreen.ttf'
p524
sg21
g22
sbag7
(g8
g9
NtRp525
(dp526
g12
g13
sg14
S'Tlwg Typo'
p527
sg16
I700
sg17
g13
sg18
g13
sg19
S'/usr/share/fonts/truetype/thai/TlwgTypo-Bold.ttf'
p528
sg21
g22
sbag7
(g8
g9
NtRp529
(dp530
g12
g13
sg14
S'kacstPen'
p531
sg16
I400
sg17
g13
sg18
g13
sg19
S'/usr/share/fonts/truetype/ttf-kacst/kacstPen.ttf'
p532
sg21
g22
sbag7
(g8
g9
NtRp533
(dp534
g12
g118
sg14
S'Waree'
p535
sg16
I400
sg17
g13
sg18
g13
sg19
S'/usr/share/fonts/truetype/thai/Waree-Oblique.ttf'
p536
sg21
g22
sbag7
(g8
g9
NtRp537
(dp538
g12
g13
sg14
S'FreeMono'
p539
sg16
I400
sg17
g13
sg18
g13
sg19
S'/usr/share/fonts/truetype/freefont/FreeMono.ttf'
p540
sg21
g22
sbag7
(g8
g9
NtRp541
(dp542
g12
g29
sg14
S'Norasi'
p543
sg16
I700
sg17
g13
sg18
g13
sg19
S'/usr/share/fonts/truetype/thai/Norasi-BoldItalic.ttf'
p544
sg21
g22
sbag7
(g8
g9
NtRp545
(dp546
g12
g118
sg14
S'Norasi'
p547
sg16
I700
sg17
g13
sg18
g13
sg19
S'/usr/share/fonts/truetype/thai/Norasi-BoldOblique.ttf'
p548
sg21
g22
sbag7
(g8
g9
NtRp549
(dp550
g12
g29
sg14
S'FreeSerif'
p551
sg16
I400
sg17
g13
sg18
g13
sg19
S'/usr/share/fonts/truetype/freefont/FreeSerifItalic.ttf'
p552
sg21
g22
sbag7
(g8
g9
NtRp553
(dp554
g12
g29
sg14
S'Norasi'
p555
sg16
I400
sg17
g13
sg18
g13
sg19
S'/usr/share/fonts/truetype/thai/Norasi-Italic.ttf'
p556
sg21
g22
sbag7
(g8
g9
NtRp557
(dp558
g12
g13
sg14
S'KacstArt'
p559
sg16
I400
sg17
g13
sg18
g13
sg19
S'/usr/share/fonts/truetype/ttf-kacst/KacstArt.ttf'
p560
sg21
g22
sbasS'ttffiles'
p561
(lp562
S'/usr/share/matplotlib/mpl-data/fonts/ttf/cmb10.ttf'
p563
aS'/usr/share/matplotlib/mpl-data/fonts/ttf/cmex10.ttf'
p564
aS'/usr/share/matplotlib/mpl-data/fonts/ttf/STIXNonUniIta.ttf'
p565
aS'/usr/share/matplotlib/mpl-data/fonts/ttf/STIXNonUni.ttf'
p566
aS'/usr/share/matplotlib/mpl-data/fonts/ttf/STIXSiz5Sym.ttf'
p567
aS'/usr/share/matplotlib/mpl-data/fonts/ttf/cmtt10.ttf'
p568
aS'/usr/share/matplotlib/mpl-data/fonts/ttf/STIXGeneral.ttf'
p569
aS'/usr/share/matplotlib/mpl-data/fonts/ttf/STIXNonUniBolIta.ttf'
p570
aS'/usr/share/matplotlib/mpl-data/fonts/ttf/STIXSiz3SymBol.ttf'
p571
aS'/usr/share/matplotlib/mpl-data/fonts/ttf/STIXSiz3Sym.ttf'
p572
aS'/usr/share/matplotlib/mpl-data/fonts/ttf/STIXSiz2Sym.ttf'
p573
aS'/usr/share/matplotlib/mpl-data/fonts/ttf/STIXGeneralBol.ttf'
p574
aS'/usr/share/matplotlib/mpl-data/fonts/ttf/STIXSiz4SymBol.ttf'
p575
aS'/usr/share/matplotlib/mpl-data/fonts/ttf/STIXSiz2SymBol.ttf'
p576
aS'/usr/share/matplotlib/mpl-data/fonts/ttf/cmsy10.ttf'
p577
aS'/usr/share/matplotlib/mpl-data/fonts/ttf/cmss10.ttf'
p578
aS'/usr/share/matplotlib/mpl-data/fonts/ttf/STIXSiz1SymBol.ttf'
p579
aS'/usr/share/matplotlib/mpl-data/fonts/ttf/STIXGeneralItalic.ttf'
p580
aS'/usr/share/matplotlib/mpl-data/fonts/ttf/cmr10.ttf'
p581
aS'/usr/share/matplotlib/mpl-data/fonts/ttf/STIXSiz4Sym.ttf'
p582
aS'/usr/share/matplotlib/mpl-data/fonts/ttf/STIXSiz1Sym.ttf'
p583
aS'/usr/share/matplotlib/mpl-data/fonts/ttf/cmmi10.ttf'
p584
aS'/usr/share/matplotlib/mpl-data/fonts/ttf/STIXNonUniBol.ttf'
p585
aS'/usr/share/matplotlib/mpl-data/fonts/ttf/STIXGeneralBolIta.ttf'
p586
aS'/usr/share/fonts/truetype/thai/Purisa-BoldOblique.ttf'
p587
aS'/usr/share/fonts/truetype/latex-xft-fonts/cmsy10.ttf'
p588
aS'/usr/share/fonts/truetype/ttf-kacst/mry_KacstQurn.ttf'
p589
aS'/usr/share/fonts/truetype/ttf-indic-fonts-core/Malige-b.ttf'
p590
aS'/usr/share/fonts/truetype/thai/Kinnari-BoldOblique.ttf'
p591
aS'/usr/share/fonts/truetype/thai/TlwgTypo-Oblique.ttf'
p592
aS'/usr/share/fonts/truetype/thai/Umpush.ttf'
p593
aS'/usr/share/fonts/truetype/thai/Loma-BoldOblique.ttf'
p594
aS'/usr/share/fonts/truetype/unfonts/UnBatangBold.ttf'
p595
aS'/usr/share/fonts/truetype/latex-xft-fonts/msam10.ttf'
p596
aS'/usr/share/fonts/truetype/thai/TlwgTypewriter-Oblique.ttf'
p597
aS'/usr/share/fonts/truetype/ttf-dejavu/DejaVuSansMono.ttf'
p598
aS'/usr/share/fonts/truetype/thai/Kinnari.ttf'
p599
aS'/usr/share/fonts/truetype/thai/Loma-Oblique.ttf'
p600
aS'/usr/share/fonts/truetype/freefont/FreeSerifBold.ttf'
p601
aS'/usr/share/fonts/truetype/thai/Umpush-BoldOblique.ttf'
p602
aS'/usr/share/fonts/truetype/latex-xft-fonts/wasy10.ttf'
p603
aS'/usr/share/fonts/truetype/ttf-indic-fonts-core/Rachana_04.ttf'
p604
aS'/usr/share/fonts/truetype/ttf-dejavu/DejaVuSerif.ttf'
p605
aS'/usr/share/fonts/truetype/ttf-kacst/KacstOffice.ttf'
p606
aS'/usr/share/fonts/truetype/freefont/FreeSansOblique.ttf'
p607
aS'/usr/share/fonts/truetype/thai/TlwgMono-Bold.ttf'
p608
aS'/usr/share/fonts/truetype/ttf-indic-fonts-core/lohit_hi.ttf'
p609
aS'/usr/share/fonts/truetype/latex-xft-fonts/msbm10.ttf'
p610
aS'/usr/share/fonts/truetype/unfonts/UnDotumBold.ttf'
p611
aS'/usr/share/fonts/truetype/thai/Norasi.ttf'
p612
aS'/usr/share/fonts/truetype/ttf-kacst/KacstQurn.ttf'
p613
aS'/usr/share/fonts/truetype/thai/Norasi-Oblique.ttf'
p614
aS'/usr/share/fonts/truetype/thai/Sawasdee-Bold.ttf'
p615
aS'/usr/share/fonts/truetype/thai/Waree.ttf'
p616
aS'/usr/share/fonts/truetype/ttf-kacst/KacstOne.ttf'
p617
aS'/usr/share/fonts/truetype/ttf-dejavu/DejaVuSansMono-Bold.ttf'
p618
aS'/usr/share/fonts/truetype/ttf-kacst/KacstBook.ttf'
p619
aS'/usr/share/fonts/truetype/thai/Sawasdee-BoldOblique.ttf'
p620
aS'/usr/share/fonts/truetype/thai/Waree-BoldOblique.ttf'
p621
aS'/usr/share/fonts/truetype/thai/TlwgTypewriter.ttf'
p622
aS'/usr/share/fonts/truetype/ttf-indic-fonts-core/utkal.ttf'
p623
aS'/usr/share/fonts/truetype/thai/Garuda-BoldOblique.ttf'
p624
aS'/usr/share/fonts/truetype/thai/TlwgMono-BoldOblique.ttf'
p625
aS'/usr/share/fonts/truetype/thai/TlwgTypist-Oblique.ttf'
p626
aS'/usr/share/fonts/truetype/ttf-dejavu/DejaVuSerif-Bold.ttf'
p627
aS'/usr/share/fonts/truetype/thai/TlwgTypist-Bold.ttf'
p628
aS'/usr/share/fonts/truetype/latex-xft-fonts/cmmi10.ttf'
p629
aS'/usr/share/fonts/truetype/ttf-kacst/KacstDigital.ttf'
p630
aS'/usr/share/fonts/truetype/vlgothic/VL-PGothic-Regular.ttf'
p631
aS'/usr/share/fonts/truetype/vlgothic/VL-Gothic-Regular.ttf'
p632
aS'/usr/share/fonts/truetype/ttf-kacst/KacstPoster.ttf'
p633
aS'/usr/share/fonts/truetype/ttf-indic-fonts-core/Malige-n.ttf'
p634
aS'/usr/share/fonts/truetype/ttf-kacst/KacstDecorative.ttf'
p635
aS'/usr/share/fonts/truetype/ttf-dejavu/DejaVuSans.ttf'
p636
aS'/usr/share/fonts/truetype/freefont/FreeSansBold.ttf'
p637
aS'/usr/share/fonts/truetype/thai/Loma-Bold.ttf'
p638
aS'/usr/share/fonts/truetype/thai/TlwgTypo.ttf'
p639
aS'/usr/share/fonts/truetype/thai/Sawasdee.ttf'
p640
aS'/usr/share/fonts/truetype/ttf-kacst/KacstTitle.ttf'
p641
aS'/usr/share/fonts/truetype/freefont/FreeMonoBold.ttf'
p642
aS'/usr/share/fonts/truetype/ttf-dejavu/DejaVuSans-Bold.ttf'
p643
aS'/usr/share/fonts/truetype/thai/Garuda.ttf'
p644
aS'/usr/share/fonts/truetype/ttf-lao/Phetsarath_OT.ttf'
p645
aS'/usr/share/fonts/truetype/thai/TlwgTypewriter-BoldOblique.ttf'
p646
aS'/usr/share/fonts/truetype/thai/Garuda-Bold.ttf'
p647
aS'/usr/share/fonts/truetype/thai/Loma.ttf'
p648
aS'/usr/share/fonts/truetype/thai/Umpush-LightOblique.ttf'
p649
aS'/usr/share/fonts/truetype/ttf-kacst/KacstLetter.ttf'
p650
aS'/usr/share/fonts/truetype/thai/Kinnari-Bold.ttf'
p651
aS'/usr/share/fonts/truetype/thai/TlwgMono.ttf'
p652
aS'/usr/share/fonts/truetype/openoffice/opens___.ttf'
p653
aS'/usr/share/fonts/truetype/unfonts/UnBatang.ttf'
p654
aS'/usr/share/fonts/truetype/ttf-kacst/KacstTitleL.ttf'
p655
aS'/usr/share/fonts/truetype/thai/Kinnari-Italic.ttf'
p656
aS'/usr/share/fonts/truetype/ttf-indic-fonts-core/MuktiNarrowBold.ttf'
p657
aS'/usr/share/fonts/truetype/unfonts/UnDotum.ttf'
p658
aS'/usr/share/fonts/truetype/thai/Kinnari-BoldItalic.ttf'
p659
aS'/usr/share/fonts/truetype/freefont/FreeSansBoldOblique.ttf'
p660
aS'/usr/share/fonts/truetype/latex-xft-fonts/cmr10.ttf'
p661
aS'/usr/share/fonts/truetype/thai/Purisa.ttf'
p662
aS'/usr/share/fonts/truetype/thai/TlwgMono-Oblique.ttf'
p663
aS'/usr/share/fonts/truetype/freefont/FreeMonoBoldOblique.ttf'
p664
aS'/usr/share/fonts/truetype/thai/TlwgTypist.ttf'
p665
aS'/usr/share/fonts/truetype/freefont/FreeSans.ttf'
p666
aS'/usr/share/fonts/truetype/thai/Kinnari-Oblique.ttf'
p667
aS'/usr/share/fonts/truetype/latex-xft-fonts/cmex10.ttf'
p668
aS'/usr/share/fonts/truetype/freefont/FreeSerifBoldItalic.ttf'
p669
aS'/usr/share/fonts/truetype/ttf-indic-fonts-core/Vemana.ttf'
p670
aS'/usr/share/fonts/truetype/thai/Waree-Bold.ttf'
p671
aS'/usr/share/fonts/truetype/ttf-kacst/KacstNaskh.ttf'
p672
aS'/usr/share/fonts/truetype/ttf-indic-fonts-core/lohit_ta.ttf'
p673
aS'/usr/share/fonts/truetype/thai/Umpush-Bold.ttf'
p674
aS'/usr/share/fonts/truetype/ttf-indic-fonts-core/lohit_pa.ttf'
p675
aS'/usr/share/fonts/truetype/freefont/FreeMonoOblique.ttf'
p676
aS'/usr/share/fonts/truetype/thai/TlwgTypewriter-Bold.ttf'
p677
aS'/usr/share/fonts/truetype/ttf-kacst/KacstFarsi.ttf'
p678
aS'/usr/share/fonts/truetype/thai/Umpush-Light.ttf'
p679
aS'/usr/share/fonts/truetype/thai/Garuda-Oblique.ttf'
p680
aS'/usr/share/fonts/truetype/thai/TlwgTypo-BoldOblique.ttf'
p681
aS'/usr/share/fonts/truetype/freefont/FreeSerif.ttf'
p682
aS'/usr/share/fonts/truetype/ttf-japanese-gothic.ttf'
p683
aS'/usr/share/fonts/truetype/thai/Purisa-Bold.ttf'
p684
aS'/usr/share/fonts/truetype/thai/Umpush-Oblique.ttf'
p685
aS'/usr/share/fonts/truetype/thai/Sawasdee-Oblique.ttf'
p686
aS'/usr/share/fonts/truetype/ttf-indic-fonts-core/MuktiNarrow.ttf'
p687
aS'/usr/share/fonts/truetype/thai/Norasi-Bold.ttf'
p688
aS'/usr/share/fonts/truetype/thai/Purisa-Oblique.ttf'
p689
aS'/usr/share/fonts/truetype/ttf-indic-fonts-core/lohit_gu.ttf'
p690
aS'/usr/share/fonts/truetype/thai/TlwgTypist-BoldOblique.ttf'
p691
aS'/usr/share/fonts/truetype/ttf-kacst/KacstScreen.ttf'
p692
aS'/usr/share/fonts/truetype/thai/TlwgTypo-Bold.ttf'
p693
aS'/usr/share/fonts/truetype/ttf-kacst/kacstPen.ttf'
p694
aS'/usr/share/fonts/truetype/thai/Waree-Oblique.ttf'
p695
aS'/usr/share/fonts/truetype/freefont/FreeMono.ttf'
p696
aS'/usr/share/fonts/truetype/thai/Norasi-BoldItalic.ttf'
p697
aS'/usr/share/fonts/truetype/thai/Norasi-BoldOblique.ttf'
p698
aS'/usr/share/fonts/truetype/freefont/FreeSerifItalic.ttf'
p699
aS'/usr/share/fonts/truetype/thai/Norasi-Italic.ttf'
p700
aS'/usr/share/fonts/truetype/ttf-kacst/KacstArt.ttf'
p701
asS'_FontManager__default_weight'
p702
g13
sS'ttf_lookup_cache'
p703
(dp704
sS'default_size'
p705
NsS'defaultFont'
p706
g563
sS'afmfiles'
p707
(lp708
S'/usr/share/matplotlib/mpl-data/fonts/afm/phvl8a.afm'
p709
aS'/usr/share/matplotlib/mpl-data/fonts/afm/pzcmi8a.afm'
p710
aS'/usr/share/matplotlib/mpl-data/fonts/afm/pplb8a.afm'
p711
aS'/usr/share/matplotlib/mpl-data/fonts/afm/putbi8a.afm'
p712
aS'/usr/share/matplotlib/mpl-data/fonts/afm/phvro8an.afm'
p713
aS'/usr/share/matplotlib/mpl-data/fonts/afm/pbkd8a.afm'
p714
aS'/usr/share/matplotlib/mpl-data/fonts/afm/pncri8a.afm'
p715
aS'/usr/share/matplotlib/mpl-data/fonts/afm/pcrb8a.afm'
p716
aS'/usr/share/matplotlib/mpl-data/fonts/afm/pagdo8a.afm'
p717
aS'/usr/share/matplotlib/mpl-data/fonts/afm/putb8a.afm'
p718
aS'/usr/share/matplotlib/mpl-data/fonts/afm/pncb8a.afm'
p719
aS'/usr/share/matplotlib/mpl-data/fonts/afm/pcrro8a.afm'
p720
aS'/usr/share/matplotlib/mpl-data/fonts/afm/phvr8a.afm'
p721
aS'/usr/share/matplotlib/mpl-data/fonts/afm/cmtt10.afm'
p722
aS'/usr/share/matplotlib/mpl-data/fonts/afm/phvr8an.afm'
p723
aS'/usr/share/matplotlib/mpl-data/fonts/afm/phvro8a.afm'
p724
aS'/usr/share/matplotlib/mpl-data/fonts/afm/ptmr8a.afm'
p725
aS'/usr/share/matplotlib/mpl-data/fonts/afm/pplbi8a.afm'
p726
aS'/usr/share/matplotlib/mpl-data/fonts/afm/phvb8an.afm'
p727
aS'/usr/share/matplotlib/mpl-data/fonts/afm/cmsy10.afm'
p728
aS'/usr/share/matplotlib/mpl-data/fonts/afm/pagk8a.afm'
p729
aS'/usr/share/matplotlib/mpl-data/fonts/afm/pcrr8a.afm'
p730
aS'/usr/share/matplotlib/mpl-data/fonts/afm/cmmi10.afm'
p731
aS'/usr/share/matplotlib/mpl-data/fonts/afm/pagko8a.afm'
p732
aS'/usr/share/matplotlib/mpl-data/fonts/afm/pbkdi8a.afm'
p733
aS'/usr/share/matplotlib/mpl-data/fonts/afm/phvbo8a.afm'
p734
aS'/usr/share/matplotlib/mpl-data/fonts/afm/cmr10.afm'
p735
aS'/usr/share/matplotlib/mpl-data/fonts/afm/psyr.afm'
p736
aS'/usr/share/matplotlib/mpl-data/fonts/afm/phvlo8a.afm'
p737
aS'/usr/share/matplotlib/mpl-data/fonts/afm/phvb8a.afm'
p738
aS'/usr/share/matplotlib/mpl-data/fonts/afm/pzdr.afm'
p739
aS'/usr/share/matplotlib/mpl-data/fonts/afm/ptmri8a.afm'
p740
aS'/usr/share/matplotlib/mpl-data/fonts/afm/pplr8a.afm'
p741
aS'/usr/share/matplotlib/mpl-data/fonts/afm/pbkl8a.afm'
p742
aS'/usr/share/matplotlib/mpl-data/fonts/afm/pncbi8a.afm'
p743
aS'/usr/share/matplotlib/mpl-data/fonts/afm/ptmb8a.afm'
p744
aS'/usr/share/matplotlib/mpl-data/fonts/afm/putri8a.afm'
p745
aS'/usr/share/matplotlib/mpl-data/fonts/afm/pplri8a.afm'
p746
aS'/usr/share/matplotlib/mpl-data/fonts/afm/ptmbi8a.afm'
p747
aS'/usr/share/matplotlib/mpl-data/fonts/afm/pbkli8a.afm'
p748
aS'/usr/share/matplotlib/mpl-data/fonts/afm/putr8a.afm'
p749
aS'/usr/share/matplotlib/mpl-data/fonts/afm/pagd8a.afm'
p750
aS'/usr/share/matplotlib/mpl-data/fonts/afm/pncr8a.afm'
p751
aS'/usr/share/matplotlib/mpl-data/fonts/afm/cmex10.afm'
p752
aS'/usr/share/matplotlib/mpl-data/fonts/afm/phvbo8an.afm'
p753
aS'/usr/share/matplotlib/mpl-data/fonts/afm/pcrbo8a.afm'
p754
aS'/usr/share/fonts/type1/gsfonts/n021024l.afm'
p755
aS'/usr/share/fonts/X11/Type1/lmtt10.afm'
p756
aS'/usr/share/fonts/type1/gsfonts/n021004l.afm'
p757
aS'/usr/share/fonts/type1/gsfonts/c059016l.afm'
p758
aS'/usr/share/fonts/X11/Type1/lmbx10.afm'
p759
aS'/usr/share/fonts/type1/gsfonts/a010033l.afm'
p760
aS'/usr/share/fonts/X11/Type1/lmssdo10.afm'
p761
aS'/usr/share/fonts/X11/Type1/lmssqbx8.afm'
p762
aS'/usr/share/fonts/X11/Type1/lmssqo8.afm'
p763
aS'/usr/share/fonts/type1/gsfonts/p052003l.afm'
p764
aS'/usr/share/fonts/type1/gsfonts/n019064l.afm'
p765
aS'/usr/share/fonts/X11/Type1/c0649bt_.afm'
p766
aS'/usr/share/fonts/type1/gsfonts/n022023l.afm'
p767
aS'/usr/share/fonts/type1/gsfonts/n019063l.afm'
p768
aS'/usr/share/fonts/X11/Type1/lmssq8.afm'
p769
aS'/usr/share/fonts/type1/gsfonts/b018015l.afm'
p770
aS'/usr/share/fonts/X11/Type1/lmbxo10.afm'
p771
aS'/usr/share/fonts/X11/Type1/lmvtko10.afm'
p772
aS'/usr/share/fonts/type1/gsfonts/z003034l.afm'
p773
aS'/usr/share/fonts/X11/Type1/lmtcsc10.afm'
p774
aS'/usr/share/fonts/X11/Type1/lmsso10.afm'
p775
aS'/usr/share/fonts/X11/Type1/lmbxi10.afm'
p776
aS'/usr/share/fonts/type1/gsfonts/n022024l.afm'
p777
aS'/usr/share/fonts/type1/gsfonts/c059033l.afm'
p778
aS'/usr/share/fonts/X11/Type1/lmcsco10.afm'
p779
aS'/usr/share/fonts/X11/Type1/c0633bt_.afm'
p780
aS'/usr/share/fonts/X11/Type1/lmtk10.afm'
p781
aS'/usr/share/fonts/X11/Type1/lmdunh10.afm'
p782
aS'/usr/share/fonts/type1/gsfonts/d050000l.afm'
p783
aS'/usr/share/fonts/X11/Type1/lmss10.afm'
p784
aS'/usr/share/fonts/type1/gsfonts/b018012l.afm'
p785
aS'/usr/share/fonts/X11/Type1/lmvtt10.afm'
p786
aS'/usr/share/fonts/type1/gsfonts/b018032l.afm'
p787
aS'/usr/share/fonts/X11/Type1/lmro10.afm'
p788
aS'/usr/share/fonts/type1/gsfonts/b018035l.afm'
p789
aS'/usr/share/fonts/type1/gsfonts/p052024l.afm'
p790
aS'/usr/share/fonts/X11/Type1/lmduno10.afm'
p791
aS'/usr/share/fonts/type1/gsfonts/n019044l.afm'
p792
aS'/usr/share/fonts/X11/Type1/lmtlc10.afm'
p793
aS'/usr/share/fonts/X11/Type1/c0582bt_.afm'
p794
aS'/usr/share/fonts/type1/gsfonts/p052004l.afm'
p795
aS'/usr/share/fonts/type1/gsfonts/n019003l.afm'
p796
aS'/usr/share/fonts/type1/gsfonts/n022004l.afm'
p797
aS'/usr/share/fonts/X11/Type1/c0583bt_.afm'
p798
aS'/usr/share/fonts/type1/gsfonts/p052023l.afm'
p799
aS'/usr/share/fonts/X11/Type1/lmtcso10.afm'
p800
aS'/usr/share/fonts/type1/gsfonts/a010015l.afm'
p801
aS'/usr/share/fonts/X11/Type1/lmssbo10.afm'
p802
aS'/usr/share/fonts/type1/gsfonts/a010035l.afm'
p803
aS'/usr/share/fonts/X11/Type1/lmcsc10.afm'
p804
aS'/usr/share/fonts/type1/gsfonts/n019043l.afm'
p805
aS'/usr/share/fonts/type1/gsfonts/n019023l.afm'
p806
aS'/usr/share/fonts/X11/Type1/lmtko10.afm'
p807
aS'/usr/share/fonts/type1/gsfonts/s050000l.afm'
p808
aS'/usr/share/fonts/type1/mathml/Symbol.afm'
p809
aS'/usr/share/fonts/X11/Type1/c0611bt_.afm'
p810
aS'/usr/share/fonts/X11/Type1/lmbo10.afm'
p811
aS'/usr/share/fonts/type1/gsfonts/c059036l.afm'
p812
aS'/usr/share/fonts/X11/Type1/lmri10.afm'
p813
aS'/usr/share/fonts/X11/Type1/Symbol.afm'
p814
aS'/usr/share/fonts/X11/Type1/lmssqbo8.afm'
p815
aS'/usr/share/fonts/type1/gsfonts/c059013l.afm'
p816
aS'/usr/share/fonts/X11/Type1/lmr10.afm'
p817
aS'/usr/share/fonts/X11/Type1/lmb10.afm'
p818
aS'/usr/share/fonts/type1/gsfonts/a010013l.afm'
p819
aS'/usr/share/fonts/X11/Type1/lmvtto10.afm'
p820
aS'/usr/share/fonts/X11/Type1/lmssdc10.afm'
p821
aS'/usr/share/fonts/X11/Type1/lmssbx10.afm'
p822
aS'/usr/share/fonts/type1/gsfonts/n019024l.afm'
p823
aS'/usr/share/fonts/X11/Type1/lmvtk10.afm'
p824
aS'/usr/share/fonts/type1/gsfonts/n022003l.afm'
p825
aS'/usr/share/fonts/X11/Type1/lmtto10.afm'
p826
aS'/usr/share/fonts/X11/Type1/c0648bt_.afm'
p827
aS'/usr/share/fonts/X11/Type1/lmvtlo10.afm'
p828
aS'/usr/share/fonts/type1/gsfonts/n021023l.afm'
p829
aS'/usr/share/fonts/X11/Type1/lmtlo10.afm'
p830
aS'/usr/share/fonts/X11/Type1/lmvtl10.afm'
p831
aS'/usr/share/fonts/X11/Type1/lmtl10.afm'
p832
aS'/usr/share/fonts/X11/Type1/lmtti10.afm'
p833
aS'/usr/share/fonts/type1/gsfonts/n019004l.afm'
p834
aS'/usr/share/fonts/X11/Type1/c0419bt_.afm'
p835
aS'/usr/share/fonts/type1/gsfonts/n021003l.afm'
p836
aS'/usr/share/fonts/X11/Type1/lmtlco10.afm'
p837
aS'/usr/share/fonts/X11/Type1/c0632bt_.afm'
p838
aS'/usr/share/fonts/X11/Type1/lmu10.afm'
p839
asS'afmlist'
p840
(lp841
g7
(g8
g9
NtRp842
(dp843
g12
g13
sg14
S'Helvetica'
p844
sg16
I200
sg17
g13
sg18
g13
sg19
g709
sg21
g22
sbag7
(g8
g9
NtRp845
(dp846
g12
g29
sg14
S'ITC Zapf Chancery'
p847
sg16
I500
sg17
g13
sg18
g13
sg19
g710
sg21
g22
sbag7
(g8
g9
NtRp848
(dp849
g12
g13
sg14
S'Palatino'
p850
sg16
I700
sg17
g13
sg18
g13
sg19
g711
sg21
g22
sbag7
(g8
g9
NtRp851
(dp852
g12
g29
sg14
S'Utopia'
p853
sg16
I700
sg17
g13
sg18
g13
sg19
g712
sg21
g22
sbag7
(g8
g9
NtRp854
(dp855
g12
g29
sg14
S'Helvetica'
p856
sg16
I500
sg17
g13
sg18
g13
sg19
g713
sg21
g22
sbag7
(g8
g9
NtRp857
(dp858
g12
g13
sg14
S'ITC Bookman'
p859
sg16
I600
sg17
g13
sg18
g13
sg19
g714
sg21
g22
sbag7
(g8
g9
NtRp860
(dp861
g12
g29
sg14
S'New Century Schoolbook'
p862
sg16
I500
sg17
g13
sg18
g13
sg19
g715
sg21
g22
sbag7
(g8
g9
NtRp863
(dp864
g12
g13
sg14
S'Courier'
p865
sg16
I700
sg17
g13
sg18
g13
sg19
g716
sg21
g22
sbag7
(g8
g9
NtRp866
(dp867
g12
g29
sg14
S'ITC Avant Garde Gothic'
p868
sg16
I600
sg17
g13
sg18
g13
sg19
g717
sg21
g22
sbag7
(g8
g9
NtRp869
(dp870
g12
g13
sg14
S'Utopia'
p871
sg16
I700
sg17
g13
sg18
g13
sg19
g718
sg21
g22
sbag7
(g8
g9
NtRp872
(dp873
g12
g13
sg14
S'New Century Schoolbook'
p874
sg16
I700
sg17
g13
sg18
g13
sg19
g719
sg21
g22
sbag7
(g8
g9
NtRp875
(dp876
g12
g29
sg14
S'Courier'
p877
sg16
I500
sg17
g13
sg18
g13
sg19
g720
sg21
g22
sbag7
(g8
g9
NtRp878
(dp879
g12
g13
sg14
S'Helvetica'
p880
sg16
I500
sg17
g13
sg18
g13
sg19
g721
sg21
g22
sbag7
(g8
g9
NtRp881
(dp882
g12
g13
sg14
S'Computer Modern'
p883
sg16
I500
sg17
g13
sg18
g13
sg19
g722
sg21
g22
sbag7
(g8
g9
NtRp884
(dp885
g12
g13
sg14
S'Helvetica'
p886
sg16
I500
sg17
g13
sg18
g13
sg19
g723
sg21
g22
sbag7
(g8
g9
NtRp887
(dp888
g12
g29
sg14
S'Helvetica'
p889
sg16
I500
sg17
g13
sg18
g13
sg19
g724
sg21
g22
sbag7
(g8
g9
NtRp890
(dp891
g12
g13
sg14
S'Times'
p892
sg16
I500
sg17
g13
sg18
g13
sg19
g725
sg21
g22
sbag7
(g8
g9
NtRp893
(dp894
g12
g29
sg14
S'Palatino'
p895
sg16
I700
sg17
g13
sg18
g13
sg19
g726
sg21
g22
sbag7
(g8
g9
NtRp896
(dp897
g12
g13
sg14
S'Helvetica'
p898
sg16
I700
sg17
g13
sg18
g13
sg19
g727
sg21
g22
sbag7
(g8
g9
NtRp899
(dp900
g12
g29
sg14
S'Computer Modern'
p901
sg16
I500
sg17
g13
sg18
g13
sg19
g728
sg21
g22
sbag7
(g8
g9
NtRp902
(dp903
g12
g13
sg14
S'ITC Avant Garde Gothic'
p904
sg16
I400
sg17
g13
sg18
g13
sg19
g729
sg21
g22
sbag7
(g8
g9
NtRp905
(dp906
g12
g13
sg14
S'Courier'
p907
sg16
I500
sg17
g13
sg18
g13
sg19
g730
sg21
g22
sbag7
(g8
g9
NtRp908
(dp909
g12
g29
sg14
S'Computer Modern'
p910
sg16
I500
sg17
g13
sg18
g13
sg19
g731
sg21
g22
sbag7
(g8
g9
NtRp911
(dp912
g12
g29
sg14
S'ITC Avant Garde Gothic'
p913
sg16
I400
sg17
g13
sg18
g13
sg19
g732
sg21
g22
sbag7
(g8
g9
NtRp914
(dp915
g12
g29
sg14
S'ITC Bookman'
p916
sg16
I600
sg17
g13
sg18
g13
sg19
g733
sg21
g22
sbag7
(g8
g9
NtRp917
(dp918
g12
g29
sg14
S'Helvetica'
p919
sg16
I700
sg17
g13
sg18
g13
sg19
g734
sg21
g22
sbag7
(g8
g9
NtRp920
(dp921
g12
g13
sg14
S'Computer Modern'
p922
sg16
I500
sg17
g13
sg18
g13
sg19
g735
sg21
g22
sbag7
(g8
g9
NtRp923
(dp924
g12
g13
sg14
S'Symbol'
p925
sg16
I500
sg17
g13
sg18
g13
sg19
g736
sg21
g22
sbag7
(g8
g9
NtRp926
(dp927
g12
g29
sg14
S'Helvetica'
p928
sg16
I200
sg17
g13
sg18
g13
sg19
g737
sg21
g22
sbag7
(g8
g9
NtRp929
(dp930
g12
g13
sg14
S'Helvetica'
p931
sg16
I700
sg17
g13
sg18
g13
sg19
g738
sg21
g22
sbag7
(g8
g9
NtRp932
(dp933
g12
g13
sg14
S'ITC Zapf Dingbats'
p934
sg16
I500
sg17
g13
sg18
g13
sg19
g739
sg21
g22
sbag7
(g8
g9
NtRp935
(dp936
g12
g29
sg14
S'Times'
p937
sg16
I500
sg17
g13
sg18
g13
sg19
g740
sg21
g22
sbag7
(g8
g9
NtRp938
(dp939
g12
g13
sg14
S'Palatino'
p940
sg16
I500
sg17
g13
sg18
g13
sg19
g741
sg21
g22
sbag7
(g8
g9
NtRp941
(dp942
g12
g13
sg14
S'ITC Bookman'
p943
sg16
I200
sg17
g13
sg18
g13
sg19
g742
sg21
g22
sbag7
(g8
g9
NtRp944
(dp945
g12
g29
sg14
S'New Century Schoolbook'
p946
sg16
I700
sg17
g13
sg18
g13
sg19
g743
sg21
g22
sbag7
(g8
g9
NtRp947
(dp948
g12
g13
sg14
S'Times'
p949
sg16
I700
sg17
g13
sg18
g13
sg19
g744
sg21
g22
sbag7
(g8
g9
NtRp950
(dp951
g12
g29
sg14
S'Utopia'
p952
sg16
I400
sg17
g13
sg18
g13
sg19
g745
sg21
g22
sbag7
(g8
g9
NtRp953
(dp954
g12
g29
sg14
S'Palatino'
p955
sg16
I500
sg17
g13
sg18
g13
sg19
g746
sg21
g22
sbag7
(g8
g9
NtRp956
(dp957
g12
g29
sg14
S'Times'
p958
sg16
I700
sg17
g13
sg18
g13
sg19
g747
sg21
g22
sbag7
(g8
g9
NtRp959
(dp960
g12
g29
sg14
S'ITC Bookman'
p961
sg16
I200
sg17
g13
sg18
g13
sg19
g748
sg21
g22
sbag7
(g8
g9
NtRp962
(dp963
g12
g13
sg14
S'Utopia'
p964
sg16
I400
sg17
g13
sg18
g13
sg19
g749
sg21
g22
sbag7
(g8
g9
NtRp965
(dp966
g12
g13
sg14
S'ITC Avant Garde Gothic'
p967
sg16
I600
sg17
g13
sg18
g13
sg19
g750
sg21
g22
sbag7
(g8
g9
NtRp968
(dp969
g12
g13
sg14
S'New Century Schoolbook'
p970
sg16
I500
sg17
g13
sg18
g13
sg19
g751
sg21
g22
sbag7
(g8
g9
NtRp971
(dp972
g12
g13
sg14
S'Computer Modern'
p973
sg16
I500
sg17
g13
sg18
g13
sg19
g752
sg21
g22
sbag7
(g8
g9
NtRp974
(dp975
g12
g29
sg14
S'Helvetica'
p976
sg16
I700
sg17
g13
sg18
g13
sg19
g753
sg21
g22
sbag7
(g8
g9
NtRp977
(dp978
g12
g29
sg14
S'Courier'
p979
sg16
I700
sg17
g13
sg18
g13
sg19
g754
sg21
g22
sbag7
(g8
g9
NtRp980
(dp981
g12
g29
sg14
S'Nimbus Roman No9 L'
p982
sg16
I700
sg17
g13
sg18
g13
sg19
g755
sg21
g22
sbag7
(g8
g9
NtRp983
(dp984
g12
g13
sg14
S'LMTypewriter10'
p985
sg16
I400
sg17
g13
sg18
g13
sg19
g756
sg21
g22
sbag7
(g8
g9
NtRp986
(dp987
g12
g13
sg14
S'Nimbus Roman No9 L'
p988
sg16
I700
sg17
g13
sg18
g13
sg19
g757
sg21
g22
sbag7
(g8
g9
NtRp989
(dp990
g12
g13
sg14
S'Century Schoolbook L'
p991
sg16
I700
sg17
g13
sg18
g13
sg19
g758
sg21
g22
sbag7
(g8
g9
NtRp992
(dp993
g12
g13
sg14
S'LMRoman10'
p994
sg16
I700
sg17
g13
sg18
g13
sg19
g759
sg21
g22
sbag7
(g8
g9
NtRp995
(dp996
g12
g29
sg14
S'URW Gothic L'
p997
sg16
I400
sg17
g13
sg18
g13
sg19
g760
sg21
g22
sbag7
(g8
g9
NtRp998
(dp999
g12
g29
sg14
S'LMSans10'
p1000
sg16
I600
sg17
g13
sg18
g13
sg19
g761
sg21
g22
sbag7
(g8
g9
NtRp1001
(dp1002
g12
g13
sg14
S'LMSansQuotation8'
p1003
sg16
I700
sg17
g13
sg18
g13
sg19
g762
sg21
g22
sbag7
(g8
g9
NtRp1004
(dp1005
g12
g29
sg14
S'LMSansQuotation8'
p1006
sg16
I400
sg17
g13
sg18
g13
sg19
g763
sg21
g22
sbag7
(g8
g9
NtRp1007
(dp1008
g12
g13
sg14
S'URW Palladio L'
p1009
sg16
I500
sg17
g13
sg18
g13
sg19
g764
sg21
g22
sbag7
(g8
g9
NtRp1010
(dp1011
g12
g29
sg14
S'Nimbus Sans L'
p1012
sg16
I700
sg17
g13
sg18
g13
sg19
g765
sg21
g22
sbag7
(g8
g9
NtRp1013
(dp1014
g12
g29
sg14
S'Bitstream Charter'
p1015
sg16
I400
sg17
g13
sg18
g13
sg19
g766
sg21
g22
sbag7
(g8
g9
NtRp1016
(dp1017
g12
g29
sg14
S'Nimbus Mono L'
p1018
sg16
I400
sg17
g13
sg18
g13
sg19
g767
sg21
g22
sbag7
(g8
g9
NtRp1019
(dp1020
g12
g29
sg14
S'Nimbus Sans L'
p1021
sg16
I400
sg17
g13
sg18
g13
sg19
g768
sg21
g22
sbag7
(g8
g9
NtRp1022
(dp1023
g12
g13
sg14
S'LMSansQuotation8'
p1024
sg16
I400
sg17
g13
sg18
g13
sg19
g769
sg21
g22
sbag7
(g8
g9
NtRp1025
(dp1026
g12
g13
sg14
S'URW Bookman L'
p1027
sg16
I700
sg17
g13
sg18
g13
sg19
g770
sg21
g22
sbag7
(g8
g9
NtRp1028
(dp1029
g12
g29
sg14
S'LMRoman10'
p1030
sg16
I700
sg17
g13
sg18
g13
sg19
g771
sg21
g22
sbag7
(g8
g9
NtRp1031
(dp1032
g12
g29
sg14
S'LMTypewriterVarWd10'
p1033
sg16
I700
sg17
g13
sg18
g13
sg19
g772
sg21
g22
sbag7
(g8
g9
NtRp1034
(dp1035
g12
g29
sg14
S'URW Chancery L'
p1036
sg16
I500
sg17
g13
sg18
g13
sg19
g773
sg21
g22
sbag7
(g8
g9
NtRp1037
(dp1038
g12
g13
sg14
S'LMTypewriter10'
p1039
sg16
I400
sg17
g13
sg18
g13
sg19
g774
sg21
g22
sbag7
(g8
g9
NtRp1040
(dp1041
g12
g29
sg14
S'LMSans10'
p1042
sg16
I400
sg17
g13
sg18
g13
sg19
g775
sg21
g22
sbag7
(g8
g9
NtRp1043
(dp1044
g12
g29
sg14
S'LMRoman10'
p1045
sg16
I700
sg17
g13
sg18
g13
sg19
g776
sg21
g22
sbag7
(g8
g9
NtRp1046
(dp1047
g12
g29
sg14
S'Nimbus Mono L'
p1048
sg16
I700
sg17
g13
sg18
g13
sg19
g777
sg21
g22
sbag7
(g8
g9
NtRp1049
(dp1050
g12
g29
sg14
S'Century Schoolbook L'
p1051
sg16
I400
sg17
g13
sg18
g13
sg19
g778
sg21
g22
sbag7
(g8
g9
NtRp1052
(dp1053
g12
g29
sg14
S'LMRoman10'
p1054
sg16
I400
sg17
g13
sg18
g13
sg19
g779
sg21
g22
sbag7
(g8
g9
NtRp1055
(dp1056
g12
g29
sg14
S'Bitstream Charter'
p1057
sg16
I700
sg17
g13
sg18
g13
sg19
g780
sg21
g22
sbag7
(g8
g9
NtRp1058
(dp1059
g12
g13
sg14
S'LMTypewriter10'
p1060
sg16
I700
sg17
g13
sg18
g13
sg19
g781
sg21
g22
sbag7
(g8
g9
NtRp1061
(dp1062
g12
g13
sg14
S'LMRoman10'
p1063
sg16
I400
sg17
g13
sg18
g13
sg19
g782
sg21
g22
sbag7
(g8
g9
NtRp1064
(dp1065
g12
g13
sg14
S'Dingbats'
p1066
sg16
I400
sg17
g13
sg18
g13
sg19
g783
sg21
g22
sbag7
(g8
g9
NtRp1067
(dp1068
g12
g13
sg14
S'LMSans10'
p1069
sg16
I400
sg17
g13
sg18
g13
sg19
g784
sg21
g22
sbag7
(g8
g9
NtRp1070
(dp1071
g12
g13
sg14
S'URW Bookman L'
p1072
sg16
I400
sg17
g13
sg18
g13
sg19
g785
sg21
g22
sbag7
(g8
g9
NtRp1073
(dp1074
g12
g13
sg14
S'LMTypewriterVarWd10'
p1075
sg16
I400
sg17
g13
sg18
g13
sg19
g786
sg21
g22
sbag7
(g8
g9
NtRp1076
(dp1077
g12
g29
sg14
S'URW Bookman L'
p1078
sg16
I400
sg17
g13
sg18
g13
sg19
g787
sg21
g22
sbag7
(g8
g9
NtRp1079
(dp1080
g12
g29
sg14
S'LMRoman10'
p1081
sg16
I400
sg17
g13
sg18
g13
sg19
g788
sg21
g22
sbag7
(g8
g9
NtRp1082
(dp1083
g12
g29
sg14
S'URW Bookman L'
p1084
sg16
I700
sg17
g13
sg18
g13
sg19
g789
sg21
g22
sbag7
(g8
g9
NtRp1085
(dp1086
g12
g29
sg14
S'URW Palladio L'
p1087
sg16
I700
sg17
g13
sg18
g13
sg19
g790
sg21
g22
sbag7
(g8
g9
NtRp1088
(dp1089
g12
g29
sg14
S'LMRoman10'
p1090
sg16
I400
sg17
g13
sg18
g13
sg19
g791
sg21
g22
sbag7
(g8
g9
NtRp1091
(dp1092
g12
g13
sg14
S'Nimbus Sans L'
p1093
sg16
I700
sg17
g13
sg18
g13
sg19
g792
sg21
g22
sbag7
(g8
g9
NtRp1094
(dp1095
g12
g13
sg14
S'LMTypewriter10'
p1096
sg16
I200
sg17
g13
sg18
g13
sg19
g793
sg21
g22
sbag7
(g8
g9
NtRp1097
(dp1098
g12
g29
sg14
S'Courier 10 Pitch'
p1099
sg16
I400
sg17
g13
sg18
g13
sg19
g794
sg21
g22
sbag7
(g8
g9
NtRp1100
(dp1101
g12
g13
sg14
S'URW Palladio L'
p1102
sg16
I700
sg17
g13
sg18
g13
sg19
g795
sg21
g22
sbag7
(g8
g9
NtRp1103
(dp1104
g12
g13
sg14
S'Nimbus Sans L'
p1105
sg16
I400
sg17
g13
sg18
g13
sg19
g796
sg21
g22
sbag7
(g8
g9
NtRp1106
(dp1107
g12
g13
sg14
S'Nimbus Mono L'
p1108
sg16
I700
sg17
g13
sg18
g13
sg19
g797
sg21
g22
sbag7
(g8
g9
NtRp1109
(dp1110
g12
g13
sg14
S'Courier 10 Pitch'
p1111
sg16
I700
sg17
g13
sg18
g13
sg19
g798
sg21
g22
sbag7
(g8
g9
NtRp1112
(dp1113
g12
g29
sg14
S'URW Palladio L'
p1114
sg16
I400
sg17
g13
sg18
g13
sg19
g799
sg21
g22
sbag7
(g8
g9
NtRp1115
(dp1116
g12
g29
sg14
S'LMTypewriter10'
p1117
sg16
I400
sg17
g13
sg18
g13
sg19
g800
sg21
g22
sbag7
(g8
g9
NtRp1118
(dp1119
g12
g13
sg14
S'URW Gothic L'
p1120
sg16
I600
sg17
g13
sg18
g13
sg19
g801
sg21
g22
sbag7
(g8
g9
NtRp1121
(dp1122
g12
g29
sg14
S'LMSans10'
p1123
sg16
I700
sg17
g13
sg18
g13
sg19
g802
sg21
g22
sbag7
(g8
g9
NtRp1124
(dp1125
g12
g29
sg14
S'URW Gothic L'
p1126
sg16
I600
sg17
g13
sg18
g13
sg19
g803
sg21
g22
sbag7
(g8
g9
NtRp1127
(dp1128
g12
g13
sg14
S'LMRoman10'
p1129
sg16
I400
sg17
g13
sg18
g13
sg19
g804
sg21
g22
sbag7
(g8
g9
NtRp1130
(dp1131
g12
g13
sg14
S'Nimbus Sans L'
p1132
sg16
I400
sg17
g13
sg18
g13
sg19
g805
sg21
g22
sbag7
(g8
g9
NtRp1133
(dp1134
g12
g29
sg14
S'Nimbus Sans L'
p1135
sg16
I400
sg17
g13
sg18
g13
sg19
g806
sg21
g22
sbag7
(g8
g9
NtRp1136
(dp1137
g12
g29
sg14
S'LMTypewriter10'
p1138
sg16
I700
sg17
g13
sg18
g13
sg19
g807
sg21
g22
sbag7
(g8
g9
NtRp1139
(dp1140
g12
g13
sg14
S'Standard Symbols L'
p1141
sg16
I400
sg17
g13
sg18
g13
sg19
g808
sg21
g22
sbag7
(g8
g9
NtRp1142
(dp1143
g12
g13
sg14
S'Symbol'
p1144
sg16
I400
sg17
g13
sg18
g13
sg19
g809
sg21
g22
sbag7
(g8
g9
NtRp1145
(dp1146
g12
g29
sg14
S'Courier 10 Pitch'
p1147
sg16
I700
sg17
g13
sg18
g13
sg19
g810
sg21
g22
sbag7
(g8
g9
NtRp1148
(dp1149
g12
g29
sg14
S'LMRoman10'
p1150
sg16
I600
sg17
g13
sg18
g13
sg19
g811
sg21
g22
sbag7
(g8
g9
NtRp1151
(dp1152
g12
g29
sg14
S'Century Schoolbook L'
p1153
sg16
I700
sg17
g13
sg18
g13
sg19
g812
sg21
g22
sbag7
(g8
g9
NtRp1154
(dp1155
g12
g29
sg14
S'LMRoman10'
p1156
sg16
I400
sg17
g13
sg18
g13
sg19
g813
sg21
g22
sbag7
(g8
g9
NtRp1157
(dp1158
g12
g29
sg14
S'LMSansQuotation8'
p1159
sg16
I700
sg17
g13
sg18
g13
sg19
g815
sg21
g22
sbag7
(g8
g9
NtRp1160
(dp1161
g12
g13
sg14
S'Century Schoolbook L'
p1162
sg16
I500
sg17
g13
sg18
g13
sg19
g816
sg21
g22
sbag7
(g8
g9
NtRp1163
(dp1164
g12
g13
sg14
S'LMRoman10'
p1165
sg16
I400
sg17
g13
sg18
g13
sg19
g817
sg21
g22
sbag7
(g8
g9
NtRp1166
(dp1167
g12
g13
sg14
S'LMRoman10'
p1168
sg16
I600
sg17
g13
sg18
g13
sg19
g818
sg21
g22
sbag7
(g8
g9
NtRp1169
(dp1170
g12
g13
sg14
S'URW Gothic L'
p1171
sg16
I400
sg17
g13
sg18
g13
sg19
g819
sg21
g22
sbag7
(g8
g9
NtRp1172
(dp1173
g12
g29
sg14
S'LMTypewriterVarWd10'
p1174
sg16
I400
sg17
g13
sg18
g13
sg19
g820
sg21
g22
sbag7
(g8
g9
NtRp1175
(dp1176
g12
g13
sg14
S'LMSans10'
p1177
sg16
I600
sg17
g13
sg18
g13
sg19
g821
sg21
g22
sbag7
(g8
g9
NtRp1178
(dp1179
g12
g13
sg14
S'LMSans10'
p1180
sg16
I700
sg17
g13
sg18
g13
sg19
g822
sg21
g22
sbag7
(g8
g9
NtRp1181
(dp1182
g12
g29
sg14
S'Nimbus Sans L'
p1183
sg16
I700
sg17
g13
sg18
g13
sg19
g823
sg21
g22
sbag7
(g8
g9
NtRp1184
(dp1185
g12
g13
sg14
S'LMTypewriterVarWd10'
p1186
sg16
I700
sg17
g13
sg18
g13
sg19
g824
sg21
g22
sbag7
(g8
g9
NtRp1187
(dp1188
g12
g13
sg14
S'Nimbus Mono L'
p1189
sg16
I400
sg17
g13
sg18
g13
sg19
g825
sg21
g22
sbag7
(g8
g9
NtRp1190
(dp1191
g12
g29
sg14
S'LMTypewriter10'
p1192
sg16
I400
sg17
g13
sg18
g13
sg19
g826
sg21
g22
sbag7
(g8
g9
NtRp1193
(dp1194
g12
g13
sg14
S'Bitstream Charter'
p1195
sg16
I400
sg17
g13
sg18
g13
sg19
g827
sg21
g22
sbag7
(g8
g9
NtRp1196
(dp1197
g12
g29
sg14
S'LMTypewriterVarWd10'
p1198
sg16
I200
sg17
g13
sg18
g13
sg19
g828
sg21
g22
sbag7
(g8
g9
NtRp1199
(dp1200
g12
g29
sg14
S'Nimbus Roman No9 L'
p1201
sg16
I400
sg17
g13
sg18
g13
sg19
g829
sg21
g22
sbag7
(g8
g9
NtRp1202
(dp1203
g12
g29
sg14
S'LMTypewriter10'
p1204
sg16
I200
sg17
g13
sg18
g13
sg19
g830
sg21
g22
sbag7
(g8
g9
NtRp1205
(dp1206
g12
g13
sg14
S'LMTypewriterVarWd10'
p1207
sg16
I200
sg17
g13
sg18
g13
sg19
g831
sg21
g22
sbag7
(g8
g9
NtRp1208
(dp1209
g12
g13
sg14
S'LMTypewriter10'
p1210
sg16
I200
sg17
g13
sg18
g13
sg19
g832
sg21
g22
sbag7
(g8
g9
NtRp1211
(dp1212
g12
g29
sg14
S'LMTypewriter10'
p1213
sg16
I400
sg17
g13
sg18
g13
sg19
g833
sg21
g22
sbag7
(g8
g9
NtRp1214
(dp1215
g12
g13
sg14
S'Nimbus Sans L'
p1216
sg16
I700
sg17
g13
sg18
g13
sg19
g834
sg21
g22
sbag7
(g8
g9
NtRp1217
(dp1218
g12
g13
sg14
S'Courier 10 Pitch'
p1219
sg16
I400
sg17
g13
sg18
g13
sg19
g835
sg21
g22
sbag7
(g8
g9
NtRp1220
(dp1221
g12
g13
sg14
S'Nimbus Roman No9 L'
p1222
sg16
I400
sg17
g13
sg18
g13
sg19
g836
sg21
g22
sbag7
(g8
g9
NtRp1223
(dp1224
g12
g29
sg14
S'LMTypewriter10'
p1225
sg16
I200
sg17
g13
sg18
g13
sg19
g837
sg21
g22
sbag7
(g8
g9
NtRp1226
(dp1227
g12
g13
sg14
S'Bitstream Charter'
p1228
sg16
I700
sg17
g13
sg18
g13
sg19
g838
sg21
g22
sbag7
(g8
g9
NtRp1229
(dp1230
g12
g13
sg14
S'LMRoman10'
p1231
sg16
I400
sg17
g13
sg18
g13
sg19
g839
sg21
g22
sbasb.